; Function Attrs: mustprogress uwtable
define void @_ZN32pxrInternal_v0_24__pxrReserved__18UsdImagingDelegate8PopulateERKNS_7UsdPrimE(ptr noundef nonnull align 8 dereferenceable(9790) %0, ptr noundef nonnull align 8 dereferenceable(32) %1) local_unnamed_addr #0 align 2 personality ptr @__gxx_personality_v0 {
  %3 = alloca %"class.std::vector", align 8
  %4 = alloca %"class.std::vector", align 8
  call void @llvm.memset.p0.i64(ptr noundef nonnull align 8 dereferenceable(24) %3, i8 0, i64 24, i1 false)
  call void @llvm.memset.p0.i64(ptr noundef nonnull align 8 dereferenceable(24) %4, i8 0, i64 24, i1 false)
  invoke void @_ZN32pxrInternal_v0_24__pxrReserved__18UsdImagingDelegate8PopulateERKNS_7UsdPrimERKSt6vectorINS_7SdfPathESaIS5_EES9_(ptr noundef nonnull align 8 dereferenceable(9790) %0, ptr noundef nonnull align 8 dereferenceable(32) %1, ptr noundef nonnull align 8 dereferenceable(24) %3, ptr noundef nonnull align 8 dereferenceable(24) %4)
          to label %5 unwind label %64

5:                                                ; preds = %2
  %6 = load ptr, ptr %4, align 8
  %7 = getelementptr inbounds nuw i8, ptr %4, i64 8
  %8 = load ptr, ptr %7, align 8
  %.not4.i.i.i.i = icmp eq ptr %6, %8
  br i1 %.not4.i.i.i.i, label %_ZSt8_DestroyIPN32pxrInternal_v0_24__pxrReserved__7SdfPathES1_EvT_S3_RSaIT0_E.exit.i, label %.lr.ph.i.i.i.i

.lr.ph.i.i.i.i:                                   ; preds = %5, %_ZSt8_DestroyIN32pxrInternal_v0_24__pxrReserved__7SdfPathEEvPT_.exit.i.i.i.i
  %.05.i.i.i.i = phi ptr [ %27, %_ZSt8_DestroyIN32pxrInternal_v0_24__pxrReserved__7SdfPathEEvPT_.exit.i.i.i.i ], [ %6, %5 ]
  %9 = load i32, ptr %.05.i.i.i.i, align 4
  %.not.i.i.i.i.i.i.i = icmp eq i32 %9, 0
  br i1 %.not.i.i.i.i.i.i.i, label %_ZSt8_DestroyIN32pxrInternal_v0_24__pxrReserved__7SdfPathEEvPT_.exit.i.i.i.i, label %10

10:                                               ; preds = %.lr.ph.i.i.i.i
  %11 = and i32 %9, 255
  %12 = lshr i32 %9, 8
  %13 = zext nneg i32 %11 to i64
  %14 = getelementptr inbounds [257 x ptr], ptr @_ZN32pxrInternal_v0_24__pxrReserved__8Sdf_PoolINS_15Sdf_PathPrimTagELj24ELj8ELj16384EE13_regionStartsE, i64 0, i64 %13
  %15 = load ptr, ptr %14, align 8
  %16 = mul nuw nsw i32 %12, 24
  %17 = zext nneg i32 %16 to i64
  %18 = getelementptr inbounds i8, ptr %15, i64 %17
  %19 = getelementptr inbounds nuw i8, ptr %18, i64 8
  %20 = atomicrmw sub ptr %19, i32 1 seq_cst, align 4
  %21 = and i32 %20, 2147483647
  %22 = icmp eq i32 %21, 1
  br i1 %22, label %23, label %_ZSt8_DestroyIN32pxrInternal_v0_24__pxrReserved__7SdfPathEEvPT_.exit.i.i.i.i

23:                                               ; preds = %10
  invoke void @_ZNK32pxrInternal_v0_24__pxrReserved__12Sdf_PathNode8_DestroyEv(ptr noundef nonnull align 8 dereferenceable(16) %18)
          to label %_ZSt8_DestroyIN32pxrInternal_v0_24__pxrReserved__7SdfPathEEvPT_.exit.i.i.i.i unwind label %24

24:                                               ; preds = %23
  %25 = landingpad { ptr, i32 }
          catch ptr null
  %26 = extractvalue { ptr, i32 } %25, 0
  call void @__clang_call_terminate(ptr %26) #28
  unreachable

_ZSt8_DestroyIN32pxrInternal_v0_24__pxrReserved__7SdfPathEEvPT_.exit.i.i.i.i: ; preds = %23, %10, %.lr.ph.i.i.i.i
  %27 = getelementptr inbounds i8, ptr %.05.i.i.i.i, i64 8
  %.not.i.i.i.i = icmp eq ptr %27, %8
  br i1 %.not.i.i.i.i, label %_ZSt8_DestroyIPN32pxrInternal_v0_24__pxrReserved__7SdfPathES1_EvT_S3_RSaIT0_E.exitthread-pre-split.i, label %.lr.ph.i.i.i.i, !llvm.loop !31

_ZSt8_DestroyIPN32pxrInternal_v0_24__pxrReserved__7SdfPathES1_EvT_S3_RSaIT0_E.exitthread-pre-split.i: ; preds = %_ZSt8_DestroyIN32pxrInternal_v0_24__pxrReserved__7SdfPathEEvPT_.exit.i.i.i.i
  %.pr.i = load ptr, ptr %4, align 8
  br label %_ZSt8_DestroyIPN32pxrInternal_v0_24__pxrReserved__7SdfPathES1_EvT_S3_RSaIT0_E.exit.i

_ZSt8_DestroyIPN32pxrInternal_v0_24__pxrReserved__7SdfPathES1_EvT_S3_RSaIT0_E.exit.i: ; preds = %_ZSt8_DestroyIPN32pxrInternal_v0_24__pxrReserved__7SdfPathES1_EvT_S3_RSaIT0_E.exitthread-pre-split.i, %5
  %28 = phi ptr [ %.pr.i, %_ZSt8_DestroyIPN32pxrInternal_v0_24__pxrReserved__7SdfPathES1_EvT_S3_RSaIT0_E.exitthread-pre-split.i ], [ %6, %5 ]
  %.not.i.i.i = icmp eq ptr %28, null
  br i1 %.not.i.i.i, label %_ZNSt6vectorIN32pxrInternal_v0_24__pxrReserved__7SdfPathESaIS1_EED2Ev.exit, label %29

29:                                               ; preds = %_ZSt8_DestroyIPN32pxrInternal_v0_24__pxrReserved__7SdfPathES1_EvT_S3_RSaIT0_E.exit.i
  %30 = getelementptr inbounds nuw i8, ptr %4, i64 16
  %31 = load ptr, ptr %30, align 8
  %32 = ptrtoint ptr %31 to i64
  %33 = ptrtoint ptr %28 to i64
  %34 = sub i64 %32, %33
  call void @_ZdlPvm(ptr noundef nonnull %28, i64 noundef %34) #29
  br label %_ZNSt6vectorIN32pxrInternal_v0_24__pxrReserved__7SdfPathESaIS1_EED2Ev.exit

_ZNSt6vectorIN32pxrInternal_v0_24__pxrReserved__7SdfPathESaIS1_EED2Ev.exit: ; preds = %_ZSt8_DestroyIPN32pxrInternal_v0_24__pxrReserved__7SdfPathES1_EvT_S3_RSaIT0_E.exit.i, %29
  %35 = load ptr, ptr %3, align 8
  %36 = getelementptr inbounds nuw i8, ptr %3, i64 8
  %37 = load ptr, ptr %36, align 8
  %.not4.i.i.i.i3 = icmp eq ptr %35, %37
  br i1 %.not4.i.i.i.i3, label %_ZSt8_DestroyIPN32pxrInternal_v0_24__pxrReserved__7SdfPathES1_EvT_S3_RSaIT0_E.exit.i11, label %.lr.ph.i.i.i.i4

.lr.ph.i.i.i.i4:                                  ; preds = %_ZNSt6vectorIN32pxrInternal_v0_24__pxrReserved__7SdfPathESaIS1_EED2Ev.exit, %_ZSt8_DestroyIN32pxrInternal_v0_24__pxrReserved__7SdfPathEEvPT_.exit.i.i.i.i7
  %.05.i.i.i.i5 = phi ptr [ %56, %_ZSt8_DestroyIN32pxrInternal_v0_24__pxrReserved__7SdfPathEEvPT_.exit.i.i.i.i7 ], [ %35, %_ZNSt6vectorIN32pxrInternal_v0_24__pxrReserved__7SdfPathESaIS1_EED2Ev.exit ]
  %38 = load i32, ptr %.05.i.i.i.i5, align 4
  %.not.i.i.i.i.i.i.i6 = icmp eq i32 %38, 0
  br i1 %.not.i.i.i.i.i.i.i6, label %_ZSt8_DestroyIN32pxrInternal_v0_24__pxrReserved__7SdfPathEEvPT_.exit.i.i.i.i7, label %39

39:                                               ; preds = %.lr.ph.i.i.i.i4
  %40 = and i32 %38, 255
  %41 = lshr i32 %38, 8
  %42 = zext nneg i32 %40 to i64
  %43 = getelementptr inbounds [257 x ptr], ptr @_ZN32pxrInternal_v0_24__pxrReserved__8Sdf_PoolINS_15Sdf_PathPrimTagELj24ELj8ELj16384EE13_regionStartsE, i64 0, i64 %42
  %44 = load ptr, ptr %43, align 8
  %45 = mul nuw nsw i32 %41, 24
  %46 = zext nneg i32 %45 to i64
  %47 = getelementptr inbounds i8, ptr %44, i64 %46
  %48 = getelementptr inbounds nuw i8, ptr %47, i64 8
  %49 = atomicrmw sub ptr %48, i32 1 seq_cst, align 4
  %50 = and i32 %49, 2147483647
  %51 = icmp eq i32 %50, 1
  br i1 %51, label %52, label %_ZSt8_DestroyIN32pxrInternal_v0_24__pxrReserved__7SdfPathEEvPT_.exit.i.i.i.i7

52:                                               ; preds = %39
  invoke void @_ZNK32pxrInternal_v0_24__pxrReserved__12Sdf_PathNode8_DestroyEv(ptr noundef nonnull align 8 dereferenceable(16) %47)
          to label %_ZSt8_DestroyIN32pxrInternal_v0_24__pxrReserved__7SdfPathEEvPT_.exit.i.i.i.i7 unwind label %53

53:                                               ; preds = %52
  %54 = landingpad { ptr, i32 }
          catch ptr null
  %55 = extractvalue { ptr, i32 } %54, 0
  call void @__clang_call_terminate(ptr %55) #28
  unreachable

_ZSt8_DestroyIN32pxrInternal_v0_24__pxrReserved__7SdfPathEEvPT_.exit.i.i.i.i7: ; preds = %52, %39, %.lr.ph.i.i.i.i4
  %56 = getelementptr inbounds i8, ptr %.05.i.i.i.i5, i64 8
  %.not.i.i.i.i8 = icmp eq ptr %56, %37
  br i1 %.not.i.i.i.i8, label %_ZSt8_DestroyIPN32pxrInternal_v0_24__pxrReserved__7SdfPathES1_EvT_S3_RSaIT0_E.exitthread-pre-split.i9, label %.lr.ph.i.i.i.i4, !llvm.loop !31

_ZSt8_DestroyIPN32pxrInternal_v0_24__pxrReserved__7SdfPathES1_EvT_S3_RSaIT0_E.exitthread-pre-split.i9: ; preds = %_ZSt8_DestroyIN32pxrInternal_v0_24__pxrReserved__7SdfPathEEvPT_.exit.i.i.i.i7
  %.pr.i10 = load ptr, ptr %3, align 8
  br label %_ZSt8_DestroyIPN32pxrInternal_v0_24__pxrReserved__7SdfPathES1_EvT_S3_RSaIT0_E.exit.i11

_ZSt8_DestroyIPN32pxrInternal_v0_24__pxrReserved__7SdfPathES1_EvT_S3_RSaIT0_E.exit.i11: ; preds = %_ZSt8_DestroyIPN32pxrInternal_v0_24__pxrReserved__7SdfPathES1_EvT_S3_RSaIT0_E.exitthread-pre-split.i9, %_ZNSt6vectorIN32pxrInternal_v0_24__pxrReserved__7SdfPathESaIS1_EED2Ev.exit
  %57 = phi ptr [ %.pr.i10, %_ZSt8_DestroyIPN32pxrInternal_v0_24__pxrReserved__7SdfPathES1_EvT_S3_RSaIT0_E.exitthread-pre-split.i9 ], [ %35, %_ZNSt6vectorIN32pxrInternal_v0_24__pxrReserved__7SdfPathESaIS1_EED2Ev.exit ]
  %.not.i.i.i12 = icmp eq ptr %57, null
  br i1 %.not.i.i.i12, label %_ZNSt6vectorIN32pxrInternal_v0_24__pxrReserved__7SdfPathESaIS1_EED2Ev.exit13, label %58

58:                                               ; preds = %_ZSt8_DestroyIPN32pxrInternal_v0_24__pxrReserved__7SdfPathES1_EvT_S3_RSaIT0_E.exit.i11
  %59 = getelementptr inbounds nuw i8, ptr %3, i64 16
  %60 = load ptr, ptr %59, align 8
  %61 = ptrtoint ptr %60 to i64
  %62 = ptrtoint ptr %57 to i64
  %63 = sub i64 %61, %62
  call void @_ZdlPvm(ptr noundef nonnull %57, i64 noundef %63) #29
  br label %_ZNSt6vectorIN32pxrInternal_v0_24__pxrReserved__7SdfPathESaIS1_EED2Ev.exit13

_ZNSt6vectorIN32pxrInternal_v0_24__pxrReserved__7SdfPathESaIS1_EED2Ev.exit13: ; preds = %_ZSt8_DestroyIPN32pxrInternal_v0_24__pxrReserved__7SdfPathES1_EvT_S3_RSaIT0_E.exit.i11, %58
  ret void

64:                                               ; preds = %2
  %65 = landingpad { ptr, i32 }
          cleanup
  call void @_ZNSt6vectorIN32pxrInternal_v0_24__pxrReserved__7SdfPathESaIS1_EED2Ev(ptr noundef nonnull align 8 dereferenceable(24) %4) #30
  call void @_ZNSt6vectorIN32pxrInternal_v0_24__pxrReserved__7SdfPathESaIS1_EED2Ev(ptr noundef nonnull align 8 dereferenceable(24) %3) #30
  resume { ptr, i32 } %65
}